target datalayout = "e-m:e-p270:32:32-p271:32:32-p272:64:64-i64:64-i128:128-f80:128-n8:16:32:64-S128"
target triple = "x86_64-pc-linux-gnu"

%struct.SurfaceDataRasInfo = type { %struct.SurfaceDataBounds, ptr, i32, i32, i32, i32, ptr, ptr, ptr, ptr, ptr, ptr, i32, %union.anon.0 }
%struct.SurfaceDataBounds = type { i32, i32, i32, i32 }
%union.anon.0 = type { ptr, [56 x i8] }

; Function Attrs: nounwind uwtable
define hidden void @ByteBinary4BitToByteBinary4BitConvert(ptr noundef %0, ptr noundef %1, i32 noundef %2, i32 noundef %3, ptr noundef %4, ptr noundef %5, ptr noundef %6, ptr noundef %7) #0 {
  %9 = alloca ptr, align 8
  %10 = alloca ptr, align 8
  %11 = alloca i32, align 4
  %12 = alloca i32, align 4
  %13 = alloca ptr, align 8
  %14 = alloca ptr, align 8
  %15 = alloca ptr, align 8
  %16 = alloca ptr, align 8
  %17 = alloca ptr, align 8
  %18 = alloca ptr, align 8
  %19 = alloca ptr, align 8
  %20 = alloca ptr, align 8
  %21 = alloca i32, align 4
  %22 = alloca i32, align 4
  %23 = alloca i32, align 4
  %24 = alloca i32, align 4
  %25 = alloca i32, align 4
  %26 = alloca i32, align 4
  %27 = alloca i32, align 4
  %28 = alloca i32, align 4
  %29 = alloca i32, align 4
  %30 = alloca i32, align 4
  %31 = alloca i32, align 4
  %32 = alloca i32, align 4
  %33 = alloca i32, align 4
  %34 = alloca i32, align 4
  %35 = alloca i32, align 4
  %36 = alloca i32, align 4
  %37 = alloca i32, align 4
  store ptr %0, ptr %9, align 8
  store ptr %1, ptr %10, align 8
  store i32 %2, ptr %11, align 4
  store i32 %3, ptr %12, align 4
  store ptr %4, ptr %13, align 8
  store ptr %5, ptr %14, align 8
  store ptr %6, ptr %15, align 8
  store ptr %7, ptr %16, align 8
  %38 = load ptr, ptr %13, align 8
  %39 = getelementptr inbounds %struct.SurfaceDataRasInfo, ptr %38, i32 0, i32 6
  %40 = load ptr, ptr %39, align 8
  store ptr %40, ptr %17, align 8
  br label %41

41:                                               ; preds = %8
  %42 = load ptr, ptr %9, align 8
  store ptr %42, ptr %19, align 8
  %43 = load ptr, ptr %10, align 8
  store ptr %43, ptr %20, align 8
  %44 = load ptr, ptr %13, align 8
  %45 = getelementptr inbounds %struct.SurfaceDataRasInfo, ptr %44, i32 0, i32 4
  %46 = load i32, ptr %45, align 8
  store i32 %46, ptr %21, align 4
  %47 = load ptr, ptr %14, align 8
  %48 = getelementptr inbounds %struct.SurfaceDataRasInfo, ptr %47, i32 0, i32 4
  %49 = load i32, ptr %48, align 8
  store i32 %49, ptr %22, align 4
  %50 = load ptr, ptr %13, align 8
  %51 = getelementptr inbounds %struct.SurfaceDataRasInfo, ptr %50, i32 0, i32 0
  %52 = getelementptr inbounds %struct.SurfaceDataBounds, ptr %51, i32 0, i32 0
  %53 = load i32, ptr %52, align 8
  store i32 %53, ptr %23, align 4
  %54 = load ptr, ptr %14, align 8
  %55 = getelementptr inbounds %struct.SurfaceDataRasInfo, ptr %54, i32 0, i32 0
  %56 = getelementptr inbounds %struct.SurfaceDataBounds, ptr %55, i32 0, i32 0
  %57 = load i32, ptr %56, align 8
  store i32 %57, ptr %24, align 4
  %58 = load ptr, ptr %14, align 8
  %59 = getelementptr inbounds %struct.SurfaceDataRasInfo, ptr %58, i32 0, i32 7
  %60 = load ptr, ptr %59, align 8
  store ptr %60, ptr %18, align 8
  %61 = load i32, ptr %11, align 4
  %62 = mul i32 %61, 0
  %63 = load i32, ptr %21, align 4
  %64 = sub i32 %63, %62
  store i32 %64, ptr %21, align 4
  %65 = load i32, ptr %11, align 4
  %66 = mul i32 %65, 0
  %67 = load i32, ptr %22, align 4
  %68 = sub i32 %67, %66
  store i32 %68, ptr %22, align 4
  br label %69

69:                                               ; preds = %235, %41
  %70 = load i32, ptr %23, align 4
  %71 = load ptr, ptr %13, align 8
  %72 = getelementptr inbounds %struct.SurfaceDataRasInfo, ptr %71, i32 0, i32 2
  %73 = load i32, ptr %72, align 8
  %74 = sdiv i32 %73, 4
  %75 = add nsw i32 %70, %74
  store i32 %75, ptr %25, align 4
  %76 = load i32, ptr %25, align 4
  %77 = sdiv i32 %76, 2
  store i32 %77, ptr %26, align 4
  %78 = load i32, ptr %25, align 4
  %79 = srem i32 %78, 2
  %80 = mul nsw i32 %79, 4
  %81 = sub nsw i32 4, %80
  store i32 %81, ptr %27, align 4
  %82 = load ptr, ptr %19, align 8
  %83 = load i32, ptr %26, align 4
  %84 = sext i32 %83 to i64
  %85 = getelementptr inbounds i8, ptr %82, i64 %84
  %86 = load i8, ptr %85, align 1
  %87 = zext i8 %86 to i32
  store i32 %87, ptr %28, align 4
  %88 = load i32, ptr %24, align 4
  %89 = load ptr, ptr %14, align 8
  %90 = getelementptr inbounds %struct.SurfaceDataRasInfo, ptr %89, i32 0, i32 2
  %91 = load i32, ptr %90, align 8
  %92 = sdiv i32 %91, 4
  %93 = add nsw i32 %88, %92
  store i32 %93, ptr %29, align 4
  %94 = load i32, ptr %29, align 4
  %95 = sdiv i32 %94, 2
  store i32 %95, ptr %30, align 4
  %96 = load i32, ptr %29, align 4
  %97 = srem i32 %96, 2
  %98 = mul nsw i32 %97, 4
  %99 = sub nsw i32 4, %98
  store i32 %99, ptr %31, align 4
  %100 = load ptr, ptr %20, align 8
  %101 = load i32, ptr %30, align 4
  %102 = sext i32 %101 to i64
  %103 = getelementptr inbounds i8, ptr %100, i64 %102
  %104 = load i8, ptr %103, align 1
  %105 = zext i8 %104 to i32
  store i32 %105, ptr %32, align 4
  %106 = load i32, ptr %11, align 4
  store i32 %106, ptr %33, align 4
  br label %107

107:                                              ; preds = %212, %69
  br label %108

108:                                              ; preds = %107
  %109 = load i32, ptr %27, align 4
  %110 = icmp slt i32 %109, 0
  br i1 %110, label %111, label %125

111:                                              ; preds = %108
  %112 = load i32, ptr %28, align 4
  %113 = trunc i32 %112 to i8
  %114 = load ptr, ptr %19, align 8
  %115 = load i32, ptr %26, align 4
  %116 = sext i32 %115 to i64
  %117 = getelementptr inbounds i8, ptr %114, i64 %116
  store i8 %113, ptr %117, align 1
  %118 = load ptr, ptr %19, align 8
  %119 = load i32, ptr %26, align 4
  %120 = add nsw i32 %119, 1
  store i32 %120, ptr %26, align 4
  %121 = sext i32 %120 to i64
  %122 = getelementptr inbounds i8, ptr %118, i64 %121
  %123 = load i8, ptr %122, align 1
  %124 = zext i8 %123 to i32
  store i32 %124, ptr %28, align 4
  store i32 4, ptr %27, align 4
  br label %125

125:                                              ; preds = %111, %108
  br label %126

126:                                              ; preds = %125
  br label %127

127:                                              ; preds = %126
  %128 = load i32, ptr %31, align 4
  %129 = icmp slt i32 %128, 0
  br i1 %129, label %130, label %144

130:                                              ; preds = %127
  %131 = load i32, ptr %32, align 4
  %132 = trunc i32 %131 to i8
  %133 = load ptr, ptr %20, align 8
  %134 = load i32, ptr %30, align 4
  %135 = sext i32 %134 to i64
  %136 = getelementptr inbounds i8, ptr %133, i64 %135
  store i8 %132, ptr %136, align 1
  %137 = load ptr, ptr %20, align 8
  %138 = load i32, ptr %30, align 4
  %139 = add nsw i32 %138, 1
  store i32 %139, ptr %30, align 4
  %140 = sext i32 %139 to i64
  %141 = getelementptr inbounds i8, ptr %137, i64 %140
  %142 = load i8, ptr %141, align 1
  %143 = zext i8 %142 to i32
  store i32 %143, ptr %32, align 4
  store i32 4, ptr %31, align 4
  br label %144

144:                                              ; preds = %130, %127
  br label %145

145:                                              ; preds = %144
  br label %146

146:                                              ; preds = %145
  %147 = load ptr, ptr %17, align 8
  %148 = load i32, ptr %28, align 4
  %149 = load i32, ptr %27, align 4
  %150 = ashr i32 %148, %149
  %151 = and i32 %150, 15
  %152 = sext i32 %151 to i64
  %153 = getelementptr inbounds i32, ptr %147, i64 %152
  %154 = load i32, ptr %153, align 4
  store i32 %154, ptr %34, align 4
  br label %155

155:                                              ; preds = %146
  br label %156

156:                                              ; preds = %155
  %157 = load i32, ptr %34, align 4
  %158 = and i32 %157, 255
  store i32 %158, ptr %37, align 4
  %159 = load i32, ptr %34, align 4
  %160 = ashr i32 %159, 8
  %161 = and i32 %160, 255
  store i32 %161, ptr %36, align 4
  %162 = load i32, ptr %34, align 4
  %163 = ashr i32 %162, 16
  %164 = and i32 %163, 255
  store i32 %164, ptr %35, align 4
  br label %165

165:                                              ; preds = %156
  br label %166

166:                                              ; preds = %165
  %167 = load i32, ptr %31, align 4
  %168 = shl i32 15, %167
  %169 = xor i32 %168, -1
  %170 = load i32, ptr %32, align 4
  %171 = and i32 %170, %169
  store i32 %171, ptr %32, align 4
  %172 = load ptr, ptr %18, align 8
  %173 = load i32, ptr %35, align 4
  %174 = trunc i32 %173 to i8
  %175 = zext i8 %174 to i32
  %176 = ashr i32 %175, 3
  %177 = shl i32 %176, 10
  %178 = load i32, ptr %36, align 4
  %179 = trunc i32 %178 to i8
  %180 = zext i8 %179 to i32
  %181 = ashr i32 %180, 3
  %182 = shl i32 %181, 5
  %183 = add nsw i32 %177, %182
  %184 = load i32, ptr %37, align 4
  %185 = trunc i32 %184 to i8
  %186 = zext i8 %185 to i32
  %187 = ashr i32 %186, 3
  %188 = add nsw i32 %183, %187
  %189 = sext i32 %188 to i64
  %190 = getelementptr inbounds i8, ptr %172, i64 %189
  %191 = load i8, ptr %190, align 1
  %192 = zext i8 %191 to i32
  %193 = load i32, ptr %31, align 4
  %194 = shl i32 %192, %193
  %195 = load i32, ptr %32, align 4
  %196 = or i32 %195, %194
  store i32 %196, ptr %32, align 4
  br label %197

197:                                              ; preds = %166
  br label %198

198:                                              ; preds = %197
  br label %199

199:                                              ; preds = %198
  %200 = load i32, ptr %27, align 4
  %201 = sub nsw i32 %200, 4
  store i32 %201, ptr %27, align 4
  %202 = load i32, ptr %31, align 4
  %203 = sub nsw i32 %202, 4
  store i32 %203, ptr %31, align 4
  %204 = load ptr, ptr %19, align 8
  %205 = ptrtoint ptr %204 to i64
  %206 = add nsw i64 %205, 0
  %207 = inttoptr i64 %206 to ptr
  store ptr %207, ptr %19, align 8
  %208 = load ptr, ptr %20, align 8
  %209 = ptrtoint ptr %208 to i64
  %210 = add nsw i64 %209, 0
  %211 = inttoptr i64 %210 to ptr
  store ptr %211, ptr %20, align 8
  br label %212

212:                                              ; preds = %199
  %213 = load i32, ptr %33, align 4
  %214 = add i32 %213, -1
  store i32 %214, ptr %33, align 4
  %215 = icmp ugt i32 %214, 0
  br i1 %215, label %107, label %216, !llvm.loop !30

216:                                              ; preds = %212
  %217 = load i32, ptr %32, align 4
  %218 = trunc i32 %217 to i8
  %219 = load ptr, ptr %20, align 8
  %220 = load i32, ptr %30, align 4
  %221 = sext i32 %220 to i64
  %222 = getelementptr inbounds i8, ptr %219, i64 %221
  store i8 %218, ptr %222, align 1
  %223 = load ptr, ptr %19, align 8
  %224 = ptrtoint ptr %223 to i64
  %225 = load i32, ptr %21, align 4
  %226 = sext i32 %225 to i64
  %227 = add nsw i64 %224, %226
  %228 = inttoptr i64 %227 to ptr
  store ptr %228, ptr %19, align 8
  %229 = load ptr, ptr %20, align 8
  %230 = ptrtoint ptr %229 to i64
  %231 = load i32, ptr %22, align 4
  %232 = sext i32 %231 to i64
  %233 = add nsw i64 %230, %232
  %234 = inttoptr i64 %233 to ptr
  store ptr %234, ptr %20, align 8
  br label %235

235:                                              ; preds = %216
  %236 = load i32, ptr %12, align 4
  %237 = add i32 %236, -1
  store i32 %237, ptr %12, align 4
  %238 = icmp ugt i32 %237, 0
  br i1 %238, label %69, label %239, !llvm.loop !31

239:                                              ; preds = %235
  br label %240

240:                                              ; preds = %239
  ret void
}